; Function Attrs: mustprogress uwtable
define internal void @_ZN4LuauL8fnVisitVIZNS_12_GLOBAL__N_110TypeCloner13cloneChildrenEPKNS_4TypeEEUlOT_E_NS_9UnionTypeEEEvRS6_PNSt11conditionalIXsr3stdE10is_const_vIT0_EEKvvE4typeE(ptr noundef nonnull readonly align 8 captures(none) dereferenceable(8) %0, ptr noundef readonly captures(none) %1) #2 {
  %.val = load ptr, ptr %0, align 8, !tbaa !335
  %.val2 = load ptr, ptr %1, align 8, !tbaa !209
  %3 = getelementptr i8, ptr %1, i64 8
  %.val3 = load ptr, ptr %3, align 8, !tbaa !209
  %.not4.i.i = icmp eq ptr %.val2, %.val3
  br i1 %.not4.i.i, label %_ZZN4Luau12_GLOBAL__N_110TypeCloner13cloneChildrenEPKNS_4TypeEENKUlOT_E_clIRNS_9UnionTypeEEEDaS6_.exit, label %.lr.ph.i.i

.lr.ph.i.i:                                       ; preds = %2, %.lr.ph.i.i
  %.sroa.01.05.i.i = phi ptr [ %6, %.lr.ph.i.i ], [ %.val2, %2 ]
  %4 = load ptr, ptr %.sroa.01.05.i.i, align 8, !tbaa !85
  %5 = tail call fastcc noundef ptr @_ZN4Luau12_GLOBAL__N_110TypeCloner12shallowCloneEPKNS_4TypeE(ptr noundef nonnull align 8 dereferenceable(76) %.val, ptr noundef %4)
  store ptr %5, ptr %.sroa.01.05.i.i, align 8, !tbaa !85
  %6 = getelementptr inbounds nuw i8, ptr %.sroa.01.05.i.i, i64 8
  %.not.i.i = icmp eq ptr %6, %.val3
  br i1 %.not.i.i, label %_ZZN4Luau12_GLOBAL__N_110TypeCloner13cloneChildrenEPKNS_4TypeEENKUlOT_E_clIRNS_9UnionTypeEEEDaS6_.exit, label %.lr.ph.i.i

_ZZN4Luau12_GLOBAL__N_110TypeCloner13cloneChildrenEPKNS_4TypeEENKUlOT_E_clIRNS_9UnionTypeEEEDaS6_.exit: ; preds = %.lr.ph.i.i, %2
  ret void
}